target datalayout = "e-m:e-p270:32:32-p271:32:32-p272:64:64-i64:64-i128:128-f80:128-n8:16:32:64-S128"
target triple = "x86_64-pc-linux-gnu"

%struct._mp4ves_capability_t = type { ptr, ptr, ptr }
%struct._packet_info = type { ptr, ptr, i32, i32, %struct.nstime_t, %struct.nstime_t, %struct.nstime_t, i8, ptr, ptr, ptr, ptr, %struct._address, %struct._address, %struct._address, %struct._address, %struct._address, %struct._address, i32, ptr, i8, [3 x i8], %struct.anon, i32, i32, i32, i32, ptr, i8, ptr, ptr, i16, i16, i32, i32, i16, i32, i32, ptr, ptr, ptr, i8, i8, i16, i16, i16, i32, i16, i16, ptr, ptr, ptr, ptr, ptr, i32, i32 }
%struct.nstime_t = type { i64, i32 }
%struct._address = type { i32, i32, ptr, ptr }
%struct.anon = type { i8, [3 x i8] }
%struct._asn1_ctx_t = type { i32, i32, i8, ptr, ptr, ptr, ptr, ptr, %struct.anon.0, %struct.anon.3, %struct.anon.4, ptr }
%struct.anon.0 = type { i32, i8, i8, i8, ptr, ptr, i32, i32, ptr, ptr, ptr, %union.anon }
%union.anon = type { %struct.anon.1 }
%struct.anon.1 = type { ptr }
%struct.anon.3 = type { ptr, ptr, ptr }
%struct.anon.4 = type { i32, i8, ptr, i32, i32, ptr, ptr, ptr, %union.anon.5 }
%union.anon.5 = type { %struct.anon.6 }
%struct.anon.6 = type { ptr }

@.str.167 = private unnamed_addr constant [29 x i8] c"%s:%u: failed assertion \22%s\22\00", align 1
@.str.168 = private unnamed_addr constant [32 x i8] c"epan/dissectors/packet-mp4ves.c\00", align 1
@.str.169 = private unnamed_addr constant [5 x i8] c"actx\00", align 1
@.str.170 = private unnamed_addr constant [6 x i8] c" - %s\00", align 1
@.str.171 = private unnamed_addr constant [5 x i8] c": %s\00", align 1
@.str.172 = private unnamed_addr constant [15 x i8] c" - unknown(%s)\00", align 1

; Function Attrs: nounwind null_pointer_is_valid sspstrong uwtable
define internal ptr @find_cap(ptr noundef %0) #4 {
  %2 = alloca ptr, align 8
  %3 = alloca ptr, align 8
  %4 = alloca ptr, align 8
  store ptr %0, ptr %2, align 8
  call void @llvm.lifetime.start.p0(i64 8, ptr %3) #6
  store ptr null, ptr %3, align 8
  call void @llvm.lifetime.start.p0(i64 8, ptr %4) #6
  store ptr @mp4ves_capability_tab, ptr %4, align 8
  br label %5

5:                                                ; preds = %20, %1
  %6 = load ptr, ptr %4, align 8
  %7 = getelementptr inbounds nuw %struct._mp4ves_capability_t, ptr %6, i32 0, i32 0
  %8 = load ptr, ptr %7, align 8
  %9 = icmp ne ptr %8, null
  br i1 %9, label %10, label %23

10:                                               ; preds = %5
  %11 = load ptr, ptr %2, align 8
  %12 = load ptr, ptr %4, align 8
  %13 = getelementptr inbounds nuw %struct._mp4ves_capability_t, ptr %12, i32 0, i32 0
  %14 = load ptr, ptr %13, align 8
  %15 = call i32 @strcmp(ptr noundef %11, ptr noundef %14) #8
  %16 = icmp ne i32 %15, 0
  br i1 %16, label %19, label %17

17:                                               ; preds = %10
  %18 = load ptr, ptr %4, align 8
  store ptr %18, ptr %3, align 8
  br label %23

19:                                               ; preds = %10
  br label %20

20:                                               ; preds = %19
  %21 = load ptr, ptr %4, align 8
  %22 = getelementptr %struct._mp4ves_capability_t, ptr %21, i32 1
  store ptr %22, ptr %4, align 8
  br label %5, !llvm.loop !11

23:                                               ; preds = %17, %5
  %24 = load ptr, ptr %3, align 8
  call void @llvm.lifetime.end.p0(i64 8, ptr %4) #6
  call void @llvm.lifetime.end.p0(i64 8, ptr %3) #6
  ret ptr %24
}

; Function Attrs: null_pointer_is_valid sspstrong uwtable
define internal i32 @dissect_mp4ves_name(ptr noundef %0, ptr noundef %1, ptr noundef %2, ptr noundef %3) #0 {
  %5 = alloca i32, align 4
  %6 = alloca ptr, align 8
  %7 = alloca ptr, align 8
  %8 = alloca ptr, align 8
  %9 = alloca ptr, align 8
  %10 = alloca ptr, align 8
  %11 = alloca ptr, align 8
  %12 = alloca i32, align 4
  store ptr %0, ptr %6, align 8
  store ptr %1, ptr %7, align 8
  store ptr %2, ptr %8, align 8
  store ptr %3, ptr %9, align 8
  call void @llvm.lifetime.start.p0(i64 8, ptr %10) #6
  call void @llvm.lifetime.start.p0(i64 8, ptr %11) #6
  %13 = load ptr, ptr %9, align 8
  %14 = icmp eq ptr %13, null
  br i1 %14, label %15, label %16

15:                                               ; preds = %4
  store i32 0, ptr %5, align 4
  store i32 1, ptr %12, align 4
  br label %58

16:                                               ; preds = %4
  %17 = load ptr, ptr %9, align 8
  %18 = call ptr @get_asn1_ctx(ptr noundef %17)
  store ptr %18, ptr %10, align 8
  %19 = load ptr, ptr %10, align 8
  %20 = icmp ne ptr %19, null
  br i1 %20, label %21, label %22

21:                                               ; preds = %16
  br label %24

22:                                               ; preds = %16
  call void (ptr, ...) @proto_report_dissector_bug(ptr noundef @.str.167, ptr noundef @.str.168, i32 noundef 874, ptr noundef @.str.169) #7
  unreachable

23:                                               ; No predecessors!
  br label %24

24:                                               ; preds = %23, %21
  %25 = load ptr, ptr %8, align 8
  %26 = icmp ne ptr %25, null
  br i1 %26, label %27, label %55

27:                                               ; preds = %24
  %28 = load ptr, ptr %7, align 8
  %29 = getelementptr inbounds nuw %struct._packet_info, ptr %28, i32 0, i32 27
  %30 = load ptr, ptr %29, align 8
  %31 = call ptr @find_cap(ptr noundef %30)
  store ptr %31, ptr %11, align 8
  %32 = load ptr, ptr %11, align 8
  %33 = icmp ne ptr %32, null
  br i1 %33, label %34, label %47

34:                                               ; preds = %27
  %35 = load ptr, ptr %10, align 8
  %36 = getelementptr inbounds nuw %struct._asn1_ctx_t, ptr %35, i32 0, i32 4
  %37 = load ptr, ptr %36, align 8
  %38 = load ptr, ptr %11, align 8
  %39 = getelementptr inbounds nuw %struct._mp4ves_capability_t, ptr %38, i32 0, i32 1
  %40 = load ptr, ptr %39, align 8
  call void (ptr, ptr, ...) @proto_item_append_text(ptr noundef %37, ptr noundef @.str.170, ptr noundef %40)
  %41 = load ptr, ptr %8, align 8
  %42 = call ptr @proto_tree_get_parent(ptr noundef %41)
  %43 = call ptr @proto_item_get_parent(ptr noundef %42)
  %44 = load ptr, ptr %11, align 8
  %45 = getelementptr inbounds nuw %struct._mp4ves_capability_t, ptr %44, i32 0, i32 1
  %46 = load ptr, ptr %45, align 8
  call void (ptr, ptr, ...) @proto_item_append_text(ptr noundef %43, ptr noundef @.str.171, ptr noundef %46)
  br label %54

47:                                               ; preds = %27
  %48 = load ptr, ptr %10, align 8
  %49 = getelementptr inbounds nuw %struct._asn1_ctx_t, ptr %48, i32 0, i32 4
  %50 = load ptr, ptr %49, align 8
  %51 = load ptr, ptr %7, align 8
  %52 = getelementptr inbounds nuw %struct._packet_info, ptr %51, i32 0, i32 27
  %53 = load ptr, ptr %52, align 8
  call void (ptr, ptr, ...) @proto_item_append_text(ptr noundef %50, ptr noundef @.str.172, ptr noundef %53)
  br label %54

54:                                               ; preds = %47, %34
  br label %55

55:                                               ; preds = %54, %24
  %56 = load ptr, ptr %6, align 8
  %57 = call i32 @tvb_reported_length(ptr noundef %56)
  store i32 %57, ptr %5, align 4
  store i32 1, ptr %12, align 4
  br label %58

58:                                               ; preds = %55, %15
  call void @llvm.lifetime.end.p0(i64 8, ptr %11) #6
  call void @llvm.lifetime.end.p0(i64 8, ptr %10) #6
  %59 = load i32, ptr %5, align 4
  ret i32 %59
}